; Function Attrs: nounwind uwtable
define internal fastcc noalias nonnull ptr @_init_l_Lean_Meta_Grind_instInhabitedIntroResult___closed__20() unnamed_addr #0 {
  %1 = load ptr, ptr @l_Lean_Meta_Grind_instInhabitedIntroResult___closed__3, align 8, !tbaa !10
  %2 = load ptr, ptr @l_Lean_Meta_Grind_instInhabitedIntroResult___closed__2, align 8, !tbaa !10
  %3 = load ptr, ptr @l_Lean_Meta_Grind_instInhabitedIntroResult___closed__7, align 8, !tbaa !10
  %4 = load ptr, ptr @l_Lean_PersistentHashMap_empty___at_Lean_Meta_Grind_instInhabitedGoal___spec__1, align 8, !tbaa !10
  %5 = load ptr, ptr @l_Lean_Meta_Grind_instInhabitedIntroResult___closed__4, align 8, !tbaa !10
  %6 = load ptr, ptr @l_Lean_Meta_Grind_instInhabitedIntroResult___closed__8, align 8, !tbaa !10
  %7 = load ptr, ptr @l_Lean_Meta_Grind_instInhabitedIntroResult___closed__10, align 8, !tbaa !10
  %8 = load ptr, ptr @l_Lean_Meta_Grind_instInhabitedIntroResult___closed__14, align 8, !tbaa !10
  %9 = load ptr, ptr @l_Lean_Meta_Grind_instInhabitedIntroResult___closed__18, align 8, !tbaa !10
  %10 = load ptr, ptr @l_Lean_Meta_Grind_instInhabitedIntroResult___closed__19, align 8, !tbaa !10
  tail call void @lean_inc_heartbeat() #6
  %11 = tail call noalias ptr @mi_malloc_small(i64 noundef 144) #6
  %12 = icmp eq ptr %11, null
  br i1 %12, label %13, label %lean_alloc_ctor.exit

13:                                               ; preds = %0
  tail call void @lean_internal_panic_out_of_memory() #7
  unreachable

lean_alloc_ctor.exit:                             ; preds = %0
  %14 = getelementptr inbounds nuw i8, ptr %11, i64 4
  %15 = getelementptr inbounds nuw i8, ptr %11, i64 136
  store i64 0, ptr %15, align 8, !tbaa !12
  store i32 1, ptr %11, align 4, !tbaa !4
  store i32 1048720, ptr %14, align 4
  %16 = getelementptr inbounds nuw i8, ptr %11, i64 8
  store ptr inttoptr (i64 1 to ptr), ptr %16, align 8, !tbaa !10
  %17 = getelementptr inbounds nuw i8, ptr %11, i64 16
  store ptr %1, ptr %17, align 8, !tbaa !10
  %18 = getelementptr inbounds nuw i8, ptr %11, i64 24
  store ptr %2, ptr %18, align 8, !tbaa !10
  %19 = getelementptr inbounds nuw i8, ptr %11, i64 32
  store ptr %3, ptr %19, align 8, !tbaa !10
  %20 = getelementptr inbounds nuw i8, ptr %11, i64 40
  store ptr %2, ptr %20, align 8, !tbaa !10
  %21 = getelementptr inbounds nuw i8, ptr %11, i64 48
  store ptr %4, ptr %21, align 8, !tbaa !10
  %22 = getelementptr inbounds nuw i8, ptr %11, i64 56
  store ptr %2, ptr %22, align 8, !tbaa !10
  %23 = getelementptr inbounds nuw i8, ptr %11, i64 64
  store ptr %5, ptr %23, align 8, !tbaa !10
  %24 = getelementptr inbounds nuw i8, ptr %11, i64 72
  store ptr inttoptr (i64 1 to ptr), ptr %24, align 8, !tbaa !10
  %25 = getelementptr inbounds nuw i8, ptr %11, i64 80
  store ptr %6, ptr %25, align 8, !tbaa !10
  %26 = getelementptr inbounds nuw i8, ptr %11, i64 88
  store ptr %3, ptr %26, align 8, !tbaa !10
  %27 = getelementptr inbounds nuw i8, ptr %11, i64 96
  store ptr %2, ptr %27, align 8, !tbaa !10
  %28 = getelementptr inbounds nuw i8, ptr %11, i64 104
  store ptr %7, ptr %28, align 8, !tbaa !10
  %29 = getelementptr inbounds nuw i8, ptr %11, i64 112
  store ptr %8, ptr %29, align 8, !tbaa !10
  %30 = getelementptr inbounds nuw i8, ptr %11, i64 120
  store ptr %9, ptr %30, align 8, !tbaa !10
  %31 = getelementptr inbounds nuw i8, ptr %11, i64 128
  store ptr %10, ptr %31, align 8, !tbaa !10
  ret ptr %11
}